; Function Attrs: mustprogress uwtable
define void @_ZN7rocksdb21PersistentTieredCache6LookupERKNS_5SliceEPSt10unique_ptrIA_cSt14default_deleteIS5_EEPm(ptr dead_on_unwind noalias writable sret(%"class.rocksdb::Status") align 8 %0, ptr noundef nonnull readonly align 8 captures(none) dereferenceable(56) %1, ptr noundef nonnull align 8 dereferenceable(16) %2, ptr noundef %3, ptr noundef %4) unnamed_addr #0 align 2 {
  %6 = getelementptr inbounds nuw i8, ptr %1, i64 32
  %7 = load ptr, ptr %6, align 8, !tbaa !98
  %8 = getelementptr inbounds nuw i8, ptr %7, i64 16
  %9 = load ptr, ptr %8, align 8, !tbaa !37
  %10 = load ptr, ptr %9, align 8, !tbaa !40
  %11 = getelementptr inbounds nuw i8, ptr %10, i64 24
  %12 = load ptr, ptr %11, align 8
  tail call void %12(ptr dead_on_unwind writable sret(%"class.rocksdb::Status") align 8 %0, ptr noundef nonnull align 8 dereferenceable(32) %9, ptr noundef nonnull align 8 dereferenceable(16) %2, ptr noundef %3, ptr noundef %4)
  ret void
}